target datalayout = "e-m:e-p270:32:32-p271:32:32-p272:64:64-i64:64-i128:128-f80:128-n8:16:32:64-S128"
target triple = "x86_64-pc-linux-gnu"

%struct.Abc_Ntk_t_ = type { i32, i32, ptr, ptr, ptr, ptr, ptr, ptr, ptr, ptr, ptr, ptr, ptr, [11 x i32], i32, i32, i32, i32, ptr, i32, ptr, ptr, i32, i32, i32, double, i32, %struct.Vec_Int_t_, ptr, ptr, ptr, ptr, ptr, float, i32, ptr, ptr, ptr, ptr, ptr, ptr, ptr, ptr, ptr, ptr, ptr, ptr, ptr, ptr, ptr, ptr, ptr, ptr, ptr, ptr, ptr }
%struct.Vec_Int_t_ = type { i32, i32, ptr }
%struct.Abc_Obj_t_ = type { ptr, ptr, i32, i32, %struct.Vec_Int_t_, %struct.Vec_Int_t_, %union.anon, %union.anon.0 }
%union.anon = type { ptr }
%union.anon.0 = type { ptr }
%struct.Vec_Ptr_t_ = type { i32, i32, ptr }

@.str.10 = private unnamed_addr constant [81 x i8] c"Verification for PO #%d of network #%d has failed. The PO function is not used.\0A\00", align 1

; Function Attrs: nounwind uwtable
define internal ptr @Vec_PtrEntry(ptr noundef %0, i32 noundef %1) #0 {
  %3 = alloca ptr, align 8
  %4 = alloca i32, align 4
  store ptr %0, ptr %3, align 8
  store i32 %1, ptr %4, align 4
  %5 = load ptr, ptr %3, align 8
  %6 = getelementptr inbounds %struct.Vec_Ptr_t_, ptr %5, i32 0, i32 2
  %7 = load ptr, ptr %6, align 8
  %8 = load i32, ptr %4, align 4
  %9 = sext i32 %8 to i64
  %10 = getelementptr inbounds ptr, ptr %7, i64 %9
  %11 = load ptr, ptr %10, align 8
  ret ptr %11
}

; Function Attrs: nounwind uwtable
define internal i32 @Vec_PtrSize(ptr noundef %0) #0 {
  %2 = alloca ptr, align 8
  store ptr %0, ptr %2, align 8
  %3 = load ptr, ptr %2, align 8
  %4 = getelementptr inbounds %struct.Vec_Ptr_t_, ptr %3, i32 0, i32 1
  %5 = load i32, ptr %4, align 4
  ret i32 %5
}

; Function Attrs: nounwind uwtable
define internal ptr @Abc_ObjFanin0(ptr noundef %0) #0 {
  %2 = alloca ptr, align 8
  store ptr %0, ptr %2, align 8
  %3 = load ptr, ptr %2, align 8
  %4 = getelementptr inbounds %struct.Abc_Obj_t_, ptr %3, i32 0, i32 0
  %5 = load ptr, ptr %4, align 8
  %6 = getelementptr inbounds %struct.Abc_Ntk_t_, ptr %5, i32 0, i32 5
  %7 = load ptr, ptr %6, align 8
  %8 = getelementptr inbounds %struct.Vec_Ptr_t_, ptr %7, i32 0, i32 2
  %9 = load ptr, ptr %8, align 8
  %10 = load ptr, ptr %2, align 8
  %11 = getelementptr inbounds %struct.Abc_Obj_t_, ptr %10, i32 0, i32 4
  %12 = getelementptr inbounds %struct.Vec_Int_t_, ptr %11, i32 0, i32 2
  %13 = load ptr, ptr %12, align 8
  %14 = getelementptr inbounds i32, ptr %13, i64 0
  %15 = load i32, ptr %14, align 4
  %16 = sext i32 %15 to i64
  %17 = getelementptr inbounds ptr, ptr %9, i64 %16
  %18 = load ptr, ptr %17, align 8
  ret ptr %18
}

; Function Attrs: nounwind uwtable
define internal ptr @Abc_NtkPo(ptr noundef %0, i32 noundef %1) #0 {
  %3 = alloca ptr, align 8
  %4 = alloca i32, align 4
  store ptr %0, ptr %3, align 8
  store i32 %1, ptr %4, align 4
  %5 = load ptr, ptr %3, align 8
  %6 = getelementptr inbounds %struct.Abc_Ntk_t_, ptr %5, i32 0, i32 7
  %7 = load ptr, ptr %6, align 8
  %8 = load i32, ptr %4, align 4
  %9 = call ptr @Vec_PtrEntry(ptr noundef %7, i32 noundef %8)
  ret ptr %9
}

; Function Attrs: nounwind uwtable
define internal i32 @Abc_NtkPoNum(ptr noundef %0) #0 {
  %2 = alloca ptr, align 8
  store ptr %0, ptr %2, align 8
  %3 = load ptr, ptr %2, align 8
  %4 = getelementptr inbounds %struct.Abc_Ntk_t_, ptr %3, i32 0, i32 7
  %5 = load ptr, ptr %4, align 8
  %6 = call i32 @Vec_PtrSize(ptr noundef %5)
  ret i32 %6
}

; Function Attrs: nounwind uwtable
define void @Abc_NtkFraigStoreCheck(ptr noundef %0) #0 {
  %2 = alloca ptr, align 8
  %3 = alloca ptr, align 8
  %4 = alloca ptr, align 8
  %5 = alloca i32, align 4
  %6 = alloca i32, align 4
  %7 = alloca i32, align 4
  %8 = alloca i32, align 4
  %9 = alloca i32, align 4
  store ptr %0, ptr %2, align 8
  %10 = load ptr, ptr %2, align 8
  %11 = call i32 @Abc_NtkPoNum(ptr noundef %10)
  store i32 %11, ptr %6, align 4
  %12 = call i32 (...) @Abc_FrameReadStoreSize()
  store i32 %12, ptr %7, align 4
  %13 = load i32, ptr %6, align 4
  %14 = load i32, ptr %7, align 4
  %15 = sdiv i32 %13, %14
  store i32 %15, ptr %5, align 4
  store i32 0, ptr %8, align 4
  br label %16

16:                                               ; preds = %52, %1
  %17 = load i32, ptr %8, align 4
  %18 = load i32, ptr %5, align 4
  %19 = icmp slt i32 %17, %18
  br i1 %19, label %20, label %55

20:                                               ; preds = %16
  %21 = load ptr, ptr %2, align 8
  %22 = load i32, ptr %8, align 4
  %23 = call ptr @Abc_NtkPo(ptr noundef %21, i32 noundef %22)
  %24 = call ptr @Abc_ObjFanin0(ptr noundef %23)
  store ptr %24, ptr %3, align 8
  store i32 1, ptr %9, align 4
  br label %25

25:                                               ; preds = %48, %20
  %26 = load i32, ptr %9, align 4
  %27 = load i32, ptr %7, align 4
  %28 = icmp slt i32 %26, %27
  br i1 %28, label %29, label %51

29:                                               ; preds = %25
  %30 = load ptr, ptr %2, align 8
  %31 = load i32, ptr %9, align 4
  %32 = load i32, ptr %5, align 4
  %33 = mul nsw i32 %31, %32
  %34 = load i32, ptr %8, align 4
  %35 = add nsw i32 %33, %34
  %36 = call ptr @Abc_NtkPo(ptr noundef %30, i32 noundef %35)
  %37 = call ptr @Abc_ObjFanin0(ptr noundef %36)
  store ptr %37, ptr %4, align 8
  %38 = load ptr, ptr %3, align 8
  %39 = load ptr, ptr %4, align 8
  %40 = icmp ne ptr %38, %39
  br i1 %40, label %41, label %47

41:                                               ; preds = %29
  %42 = load i32, ptr %8, align 4
  %43 = add nsw i32 %42, 1
  %44 = load i32, ptr %9, align 4
  %45 = add nsw i32 %44, 1
  %46 = call i32 (ptr, ...) @printf(ptr noundef @.str.10, i32 noundef %43, i32 noundef %45)
  br label %47

47:                                               ; preds = %41, %29
  br label %48

48:                                               ; preds = %47
  %49 = load i32, ptr %9, align 4
  %50 = add nsw i32 %49, 1
  store i32 %50, ptr %9, align 4
  br label %25, !llvm.loop !28

51:                                               ; preds = %25
  br label %52

52:                                               ; preds = %51
  %53 = load i32, ptr %8, align 4
  %54 = add nsw i32 %53, 1
  store i32 %54, ptr %8, align 4
  br label %16, !llvm.loop !29

55:                                               ; preds = %16
  ret void
}