; Function Attrs: nounwind uwtable
define void @Abc_NtkFraigStoreCheck(ptr noundef readonly captures(none) %0) local_unnamed_addr #0 {
  %2 = getelementptr i8, ptr %0, i64 48
  %.val25 = load ptr, ptr %2, align 8
  %3 = getelementptr i8, ptr %.val25, i64 4
  %.val25.val = load i32, ptr %3, align 4
  %4 = tail call i32 (...) @Abc_FrameReadStoreSize() #11
  %5 = sdiv i32 %.val25.val, %4
  %6 = icmp sgt i32 %5, 0
  %7 = icmp sgt i32 %4, 1
  %or.cond = and i1 %6, %7
  br i1 %or.cond, label %.lr.ph.us.preheader, label %._crit_edge30

.lr.ph.us.preheader:                              ; preds = %1
  %8 = zext nneg i32 %5 to i64
  %wide.trip.count = zext nneg i32 %4 to i64
  br label %.lr.ph.us

.lr.ph.us:                                        ; preds = %.lr.ph.us.preheader, %._crit_edge.us
  %indvars.iv33 = phi i64 [ 0, %.lr.ph.us.preheader ], [ %indvars.iv.next34, %._crit_edge.us ]
  %.val24.us = load ptr, ptr %2, align 8
  %9 = getelementptr i8, ptr %.val24.us, i64 8
  %.val24.val.us = load ptr, ptr %9, align 8
  %10 = getelementptr inbounds nuw ptr, ptr %.val24.val.us, i64 %indvars.iv33
  %11 = load ptr, ptr %10, align 8
  %.val21.us = load ptr, ptr %11, align 8
  %12 = getelementptr i8, ptr %11, i64 32
  %.val22.us = load ptr, ptr %12, align 8
  %13 = getelementptr i8, ptr %.val21.us, i64 32
  %.val21.val.us = load ptr, ptr %13, align 8
  %.val22.val.us = load i32, ptr %.val22.us, align 4
  %14 = getelementptr i8, ptr %.val21.val.us, i64 8
  %.val21.val.val.us = load ptr, ptr %14, align 8
  %15 = sext i32 %.val22.val.us to i64
  %16 = getelementptr inbounds ptr, ptr %.val21.val.val.us, i64 %15
  %17 = load ptr, ptr %16, align 8
  %indvars.iv.next34 = add nuw nsw i64 %indvars.iv33, 1
  %18 = trunc nuw nsw i64 %indvars.iv.next34 to i32
  br label %19

19:                                               ; preds = %.lr.ph.us, %._crit_edge
  %indvars.iv = phi i64 [ 1, %.lr.ph.us ], [ %.pre, %._crit_edge ]
  %20 = mul nuw nsw i64 %indvars.iv, %8
  %.val23.us = load ptr, ptr %2, align 8
  %21 = getelementptr i8, ptr %.val23.us, i64 8
  %.val23.val.us = load ptr, ptr %21, align 8
  %22 = getelementptr ptr, ptr %.val23.val.us, i64 %20
  %23 = getelementptr ptr, ptr %22, i64 %indvars.iv33
  %24 = load ptr, ptr %23, align 8
  %.val.us = load ptr, ptr %24, align 8
  %25 = getelementptr i8, ptr %24, i64 32
  %.val20.us = load ptr, ptr %25, align 8
  %26 = getelementptr i8, ptr %.val.us, i64 32
  %.val.val.us = load ptr, ptr %26, align 8
  %.val20.val.us = load i32, ptr %.val20.us, align 4
  %27 = getelementptr i8, ptr %.val.val.us, i64 8
  %.val.val.val.us = load ptr, ptr %27, align 8
  %28 = sext i32 %.val20.val.us to i64
  %29 = getelementptr inbounds ptr, ptr %.val.val.val.us, i64 %28
  %30 = load ptr, ptr %29, align 8
  %.not.us = icmp eq ptr %17, %30
  %.pre = add nuw nsw i64 %indvars.iv, 1
  br i1 %.not.us, label %._crit_edge, label %31

31:                                               ; preds = %19
  %32 = trunc nuw nsw i64 %.pre to i32
  %33 = tail call i32 (ptr, ...) @printf(ptr noundef nonnull dereferenceable(1) @.str.10, i32 noundef %18, i32 noundef %32)
  br label %._crit_edge

._crit_edge:                                      ; preds = %19, %31
  %exitcond.not = icmp eq i64 %.pre, %wide.trip.count
  br i1 %exitcond.not, label %._crit_edge.us, label %19, !llvm.loop !31

._crit_edge.us:                                   ; preds = %._crit_edge
  %exitcond37.not = icmp eq i64 %indvars.iv.next34, %8
  br i1 %exitcond37.not, label %._crit_edge30, label %.lr.ph.us, !llvm.loop !32

._crit_edge30:                                    ; preds = %._crit_edge.us, %1
  ret void
}